; Function Attrs: inlinehint nounwind uwtable
define internal ptr @git_path(ptr noundef %0, ...) unnamed_addr #9 {
  %2 = alloca [1 x %struct.__va_list_tag], align 16
  %3 = tail call ptr @get_pathname() #17
  call void @llvm.lifetime.start.p0(i64 24, ptr nonnull %2) #17
  call void @llvm.va_start.p0(ptr nonnull %2)
  %4 = load ptr, ptr @the_repository, align 8, !tbaa !17
  call void @repo_git_pathv(ptr noundef %4, ptr noundef null, ptr noundef %3, ptr noundef %0, ptr noundef nonnull %2) #17
  call void @llvm.va_end.p0(ptr nonnull %2)
  %5 = getelementptr inbounds nuw i8, ptr %3, i64 16
  %6 = load ptr, ptr %5, align 8, !tbaa !99
  call void @llvm.lifetime.end.p0(i64 24, ptr nonnull %2) #17
  ret ptr %6
}